
obj/startup.elf:     file format elf32-littlearm


Disassembly of section .text:

80000000 <_start>:
80000000:	e59fd0b8 	ldr	sp, [pc, #184]	@ 800000c0 <delay_loop_short+0x10>
80000004:	e59f00b8 	ldr	r0, [pc, #184]	@ 800000c4 <delay_loop_short+0x14>
80000008:	e3a01002 	mov	r1, #2
8000000c:	e5801000 	str	r1, [r0]
80000010:	e59f10b0 	ldr	r1, [pc, #176]	@ 800000c8 <delay_loop_short+0x18>
80000014:	e5912000 	ldr	r2, [r1]
80000018:	e3c22602 	bic	r2, r2, #2097152	@ 0x200000
8000001c:	e5812000 	str	r2, [r1]
80000020:	e59f00a4 	ldr	r0, [pc, #164]	@ 800000cc <delay_loop_short+0x1c>
80000024:	ee0c0f10 	mcr	15, 0, r0, cr12, cr0, {0}
80000028:	f1080080 	cpsie	i

8000002c <loop>:
8000002c:	eb000014 	bl	80000084 <led_toggle>
80000030:	eb000018 	bl	80000098 <delay>
80000034:	ef000000 	svc	0x00000000
80000038:	eafffffb 	b	8000002c <loop>

8000003c <_vector_start>:
8000003c:	e59ff08c 	ldr	pc, [pc, #140]	@ 800000d0 <delay_loop_short+0x20>
80000040:	e59ff08c 	ldr	pc, [pc, #140]	@ 800000d4 <delay_loop_short+0x24>
80000044:	e59ff08c 	ldr	pc, [pc, #140]	@ 800000d8 <delay_loop_short+0x28>
80000048:	e59ff08c 	ldr	pc, [pc, #140]	@ 800000dc <delay_loop_short+0x2c>
8000004c:	e59ff08c 	ldr	pc, [pc, #140]	@ 800000e0 <delay_loop_short+0x30>
80000050:	e320f000 	nop	{0}
80000054:	e59ff088 	ldr	pc, [pc, #136]	@ 800000e4 <delay_loop_short+0x34>
80000058:	e59ff088 	ldr	pc, [pc, #136]	@ 800000e8 <delay_loop_short+0x38>

8000005c <dabt_handler>:
8000005c:	e24ee004 	sub	lr, lr, #4
80000060:	e1b0f00e 	movs	pc, lr

80000064 <irq_handler>:
80000064:	e59f0080 	ldr	r0, [pc, #128]	@ 800000ec <delay_loop_short+0x3c>
80000068:	e3a01602 	mov	r1, #2097152	@ 0x200000
8000006c:	e5801000 	str	r1, [r0]
80000070:	eb00000d 	bl	800000ac <delay_short>
80000074:	e59f0074 	ldr	r0, [pc, #116]	@ 800000f0 <delay_loop_short+0x40>
80000078:	e5801000 	str	r1, [r0]
8000007c:	e24ee004 	sub	lr, lr, #4
80000080:	e1b0f00e 	movs	pc, lr

80000084 <led_toggle>:
80000084:	e59f0068 	ldr	r0, [pc, #104]	@ 800000f4 <delay_loop_short+0x44>
80000088:	e5901000 	ldr	r1, [r0]
8000008c:	e2211602 	eor	r1, r1, #2097152	@ 0x200000
80000090:	e5801000 	str	r1, [r0]
80000094:	e12fff1e 	bx	lr

80000098 <delay>:
80000098:	e3a03000 	mov	r3, #0

8000009c <delay_loop>:
8000009c:	e2833001 	add	r3, r3, #1
800000a0:	e3530609 	cmp	r3, #9437184	@ 0x900000
800000a4:	3afffffc 	bcc	8000009c <delay_loop>
800000a8:	e12fff1e 	bx	lr

800000ac <delay_short>:
800000ac:	e3a03000 	mov	r3, #0

800000b0 <delay_loop_short>:
800000b0:	e2833001 	add	r3, r3, #1
800000b4:	e3530602 	cmp	r3, #2097152	@ 0x200000
800000b8:	3afffffc 	bcc	800000b0 <delay_loop_short>
800000bc:	e12fff1e 	bx	lr
800000c0:	80010000 	andhi	r0, r1, r0
800000c4:	44e000ac 	strbtmi	r0, [r0], #172	@ 0xac
800000c8:	4804c134 	stmdami	r4, {r2, r4, r5, r8, lr, pc}
800000cc:	8000003c 	andhi	r0, r0, ip, lsr r0
800000d0:	80000000 	andhi	r0, r0, r0
800000d4:	8000005c 	andhi	r0, r0, ip, asr r0
800000d8:	8000005c 	andhi	r0, r0, ip, asr r0
800000dc:	8000005c 	andhi	r0, r0, ip, asr r0
800000e0:	8000005c 	andhi	r0, r0, ip, asr r0
800000e4:	80000064 	andhi	r0, r0, r4, rrx
800000e8:	8000005c 	andhi	r0, r0, ip, asr r0
800000ec:	4804c190 	stmdami	r4, {r4, r7, r8, lr, pc}
800000f0:	4804c194 	stmdami	r4, {r2, r4, r7, r8, lr, pc}
800000f4:	4804c13c 	stmdami	r4, {r2, r3, r4, r5, r8, lr, pc}

Disassembly of section .ARM.attributes:

00000000 <.ARM.attributes>:
   0:	00002441 	andeq	r2, r0, r1, asr #8
   4:	61656100 	cmnvs	r5, r0, lsl #2
   8:	01006962 	tsteq	r0, r2, ror #18
   c:	0000001a 	andeq	r0, r0, sl, lsl r0
  10:	726f4305 	rsbvc	r4, pc, #335544320	@ 0x14000000
  14:	2d786574 	cfldr64cs	mvdx6, [r8, #-464]!	@ 0xfffffe30
  18:	06003841 	streq	r3, [r0], -r1, asr #16
  1c:	0841070a 	stmdaeq	r1, {r1, r3, r8, r9, sl}^
  20:	44020901 	strmi	r0, [r2], #-2305	@ 0xfffff6ff
  24:	Address 0x24 is out of bounds.

